target datalayout = "e-m:e-p270:32:32-p271:32:32-p272:64:64-i64:64-i128:128-f80:128-n8:16:32:64-S128"
target triple = "x86_64-pc-linux-gnu"

%struct._object = type { %union.anon, ptr }
%union.anon = type { i64 }
%struct.anon = type { i32, i32 }
%struct.typevarobject = type { %struct._object, ptr, ptr, ptr, ptr, ptr, ptr, ptr, i8, i8, i8 }

; Function Attrs: inlinehint nounwind uwtable
define internal void @Py_XINCREF(ptr noundef %0) #3 {
  %2 = alloca ptr, align 8
  store ptr %0, ptr %2, align 8, !tbaa !4
  %3 = load ptr, ptr %2, align 8, !tbaa !4
  %4 = icmp ne ptr %3, null
  br i1 %4, label %5, label %7

5:                                                ; preds = %1
  %6 = load ptr, ptr %2, align 8, !tbaa !4
  call void @Py_INCREF(ptr noundef %6)
  br label %7

7:                                                ; preds = %5, %1
  ret void
}

; Function Attrs: alwaysinline nounwind uwtable
define internal void @Py_INCREF(ptr noundef %0) #4 {
  %2 = alloca ptr, align 8
  %3 = alloca i32, align 4
  %4 = alloca i32, align 4
  store ptr %0, ptr %2, align 8, !tbaa !4
  call void @llvm.lifetime.start.p0(i64 4, ptr %3) #6
  %5 = load ptr, ptr %2, align 8, !tbaa !4
  %6 = getelementptr inbounds nuw %struct._object, ptr %5, i32 0, i32 0
  %7 = getelementptr inbounds nuw %struct.anon, ptr %6, i32 0, i32 0
  %8 = load i32, ptr %7, align 8, !tbaa !27
  store i32 %8, ptr %3, align 4, !tbaa !13
  %9 = load i32, ptr %3, align 4, !tbaa !13
  %10 = icmp slt i32 %9, 0
  br i1 %10, label %11, label %12

11:                                               ; preds = %1
  store i32 1, ptr %4, align 4
  br label %18

12:                                               ; preds = %1
  %13 = load i32, ptr %3, align 4, !tbaa !13
  %14 = add i32 %13, 1
  %15 = load ptr, ptr %2, align 8, !tbaa !4
  %16 = getelementptr inbounds nuw %struct._object, ptr %15, i32 0, i32 0
  %17 = getelementptr inbounds nuw %struct.anon, ptr %16, i32 0, i32 0
  store i32 %14, ptr %17, align 8, !tbaa !27
  store i32 0, ptr %4, align 4
  br label %18

18:                                               ; preds = %12, %11
  call void @llvm.lifetime.end.p0(i64 4, ptr %3) #6
  %19 = load i32, ptr %4, align 4
  switch i32 %19, label %21 [
    i32 0, label %20
    i32 1, label %20
  ]

20:                                               ; preds = %18, %18
  ret void

21:                                               ; preds = %18
  unreachable
}

; Function Attrs: inlinehint nounwind uwtable
define internal ptr @_Py_XNewRef(ptr noundef %0) #3 {
  %2 = alloca ptr, align 8
  store ptr %0, ptr %2, align 8, !tbaa !4
  %3 = load ptr, ptr %2, align 8, !tbaa !4
  call void @Py_XINCREF(ptr noundef %3)
  %4 = load ptr, ptr %2, align 8, !tbaa !4
  ret ptr %4
}

; Function Attrs: inlinehint nounwind uwtable
define internal ptr @_Py_NewRef(ptr noundef %0) #3 {
  %2 = alloca ptr, align 8
  store ptr %0, ptr %2, align 8, !tbaa !4
  %3 = load ptr, ptr %2, align 8, !tbaa !4
  call void @Py_INCREF(ptr noundef %3)
  %4 = load ptr, ptr %2, align 8, !tbaa !4
  ret ptr %4
}

; Function Attrs: nounwind uwtable
define internal ptr @typevar_constraints(ptr noundef %0, ptr noundef %1) #0 {
  %3 = alloca ptr, align 8
  %4 = alloca ptr, align 8
  %5 = alloca ptr, align 8
  %6 = alloca ptr, align 8
  store ptr %0, ptr %4, align 8, !tbaa !30
  store ptr %1, ptr %5, align 8, !tbaa !30
  %7 = load ptr, ptr %4, align 8, !tbaa !30
  %8 = getelementptr inbounds nuw %struct.typevarobject, ptr %7, i32 0, i32 4
  %9 = load ptr, ptr %8, align 8, !tbaa !118
  %10 = icmp ne ptr %9, null
  br i1 %10, label %11, label %16

11:                                               ; preds = %2
  %12 = load ptr, ptr %4, align 8, !tbaa !30
  %13 = getelementptr inbounds nuw %struct.typevarobject, ptr %12, i32 0, i32 4
  %14 = load ptr, ptr %13, align 8, !tbaa !118
  %15 = call ptr @_Py_NewRef(ptr noundef %14)
  store ptr %15, ptr %3, align 8
  br label %33

16:                                               ; preds = %2
  %17 = load ptr, ptr %4, align 8, !tbaa !30
  %18 = getelementptr inbounds nuw %struct.typevarobject, ptr %17, i32 0, i32 5
  %19 = load ptr, ptr %18, align 8, !tbaa !119
  %20 = icmp eq ptr %19, null
  br i1 %20, label %21, label %23

21:                                               ; preds = %16
  %22 = call ptr @PyTuple_New(i64 noundef 0)
  store ptr %22, ptr %3, align 8
  br label %33

23:                                               ; preds = %16
  call void @llvm.lifetime.start.p0(i64 8, ptr %6) #6
  %24 = load ptr, ptr %4, align 8, !tbaa !30
  %25 = getelementptr inbounds nuw %struct.typevarobject, ptr %24, i32 0, i32 5
  %26 = load ptr, ptr %25, align 8, !tbaa !119
  %27 = call ptr @PyObject_CallNoArgs(ptr noundef %26)
  store ptr %27, ptr %6, align 8, !tbaa !4
  %28 = load ptr, ptr %6, align 8, !tbaa !4
  %29 = call ptr @_Py_XNewRef(ptr noundef %28)
  %30 = load ptr, ptr %4, align 8, !tbaa !30
  %31 = getelementptr inbounds nuw %struct.typevarobject, ptr %30, i32 0, i32 4
  store ptr %29, ptr %31, align 8, !tbaa !118
  %32 = load ptr, ptr %6, align 8, !tbaa !4
  store ptr %32, ptr %3, align 8
  call void @llvm.lifetime.end.p0(i64 8, ptr %6) #6
  br label %33

33:                                               ; preds = %23, %21, %11
  %34 = load ptr, ptr %3, align 8
  ret ptr %34
}