; Function Attrs: nounwind uwtable
define internal ptr @typevar_constraints(ptr noundef captures(none) %0, ptr readnone captures(none) %1) #0 {
  %3 = getelementptr inbounds nuw i8, ptr %0, i64 40
  %4 = load ptr, ptr %3, align 8, !tbaa !122
  %.not = icmp eq ptr %4, null
  br i1 %.not, label %10, label %5

5:                                                ; preds = %2
  %6 = load i32, ptr %4, align 8, !tbaa !27
  %7 = icmp slt i32 %6, 0
  br i1 %7, label %_Py_NewRef.exit, label %8

8:                                                ; preds = %5
  %9 = add nuw i32 %6, 1
  store i32 %9, ptr %4, align 8, !tbaa !27
  br label %_Py_NewRef.exit

10:                                               ; preds = %2
  %11 = getelementptr inbounds nuw i8, ptr %0, i64 48
  %12 = load ptr, ptr %11, align 8, !tbaa !123
  %13 = icmp eq ptr %12, null
  br i1 %13, label %14, label %16

14:                                               ; preds = %10
  %15 = tail call ptr @PyTuple_New(i64 noundef 0) #8
  br label %_Py_NewRef.exit

16:                                               ; preds = %10
  %17 = tail call ptr @PyObject_CallNoArgs(ptr noundef nonnull %12) #8
  %.not.i.i = icmp eq ptr %17, null
  br i1 %.not.i.i, label %_Py_XNewRef.exit, label %18

18:                                               ; preds = %16
  %19 = load i32, ptr %17, align 8, !tbaa !27
  %20 = icmp slt i32 %19, 0
  br i1 %20, label %_Py_XNewRef.exit, label %21

21:                                               ; preds = %18
  %22 = add nuw i32 %19, 1
  store i32 %22, ptr %17, align 8, !tbaa !27
  br label %_Py_XNewRef.exit

_Py_XNewRef.exit:                                 ; preds = %16, %18, %21
  store ptr %17, ptr %3, align 8, !tbaa !122
  br label %_Py_NewRef.exit

_Py_NewRef.exit:                                  ; preds = %8, %5, %_Py_XNewRef.exit, %14
  %.0 = phi ptr [ %15, %14 ], [ %17, %_Py_XNewRef.exit ], [ %4, %5 ], [ %4, %8 ]
  ret ptr %.0
}